; Function Attrs: mustprogress uwtable
define i64 @_ZN2cv4gapi3wip3gst23GStreamerPipelineFacade10queryStateEv(ptr noundef nonnull readonly align 8 captures(none) dereferenceable(96) %0) local_unnamed_addr #4 align 2 personality ptr @__gxx_personality_v0 {
  %2 = alloca %"struct.cv::gapi::wip::gst::PipelineState", align 8
  %3 = alloca %"class.std::__cxx11::basic_string", align 8
  %4 = alloca %"class.std::allocator", align 1
  %5 = getelementptr inbounds nuw i8, ptr %0, i64 40
  %6 = load ptr, ptr %5, align 8, !tbaa !24
  %.not = icmp eq ptr %6, null
  br i1 %.not, label %.critedge, label %7

7:                                                ; preds = %1
  %8 = tail call i64 @gst_element_get_type()
  %9 = load ptr, ptr %6, align 8, !tbaa !29
  %.not16 = icmp eq ptr %9, null
  br i1 %.not16, label %13, label %10

10:                                               ; preds = %7
  %11 = load i64, ptr %9, align 8, !tbaa !32
  %12 = icmp eq i64 %11, %8
  br i1 %12, label %.critedge20, label %13

13:                                               ; preds = %10, %7
  %14 = tail call i32 @g_type_check_instance_is_a(ptr noundef nonnull %6, i64 noundef %8) #29
  %15 = icmp eq i32 %14, 0
  br i1 %15, label %.critedge, label %.critedge20

.critedge:                                        ; preds = %13, %1
  call void @llvm.lifetime.start.p0(i64 32, ptr nonnull %3) #25
  call void @llvm.lifetime.start.p0(i64 1, ptr nonnull %4) #25
  call void @_ZNSt7__cxx1112basic_stringIcSt11char_traitsIcESaIcEEC2EPKcRKS3_(ptr noundef nonnull align 8 dereferenceable(32) %3, ptr noundef nonnull @.str.6, ptr noundef nonnull align 1 dereferenceable(1) %4)
  invoke void @_ZN2cv5errorEiRKNSt7__cxx1112basic_stringIcSt11char_traitsIcESaIcEEEPKcS9_i(i32 noundef -215, ptr noundef nonnull align 8 dereferenceable(32) %3, ptr noundef nonnull @__func__._ZN2cv4gapi3wip3gst23GStreamerPipelineFacade10queryStateEv, ptr noundef nonnull @.str.2, i32 noundef 203) #27
          to label %16 unwind label %17

16:                                               ; preds = %.critedge
  unreachable

17:                                               ; preds = %.critedge
  %18 = landingpad { ptr, i32 }
          cleanup
  %19 = load ptr, ptr %3, align 8, !tbaa !23
  %20 = getelementptr inbounds nuw i8, ptr %3, i64 16
  %21 = icmp eq ptr %19, %20
  br i1 %21, label %_ZNKSt7__cxx1112basic_stringIcSt11char_traitsIcESaIcEE11_M_is_localEv.exit.thread.i.i, label %_ZNKSt7__cxx1112basic_stringIcSt11char_traitsIcESaIcEE11_M_is_localEv.exit.i.i

_ZNKSt7__cxx1112basic_stringIcSt11char_traitsIcESaIcEE11_M_is_localEv.exit.thread.i.i: ; preds = %17
  %22 = getelementptr inbounds nuw i8, ptr %3, i64 8
  %23 = load i64, ptr %22, align 8, !tbaa !9
  %24 = icmp ult i64 %23, 16
  call void @llvm.assume(i1 %24)
  br label %_ZNSt7__cxx1112basic_stringIcSt11char_traitsIcESaIcEED2Ev.exit

_ZNKSt7__cxx1112basic_stringIcSt11char_traitsIcESaIcEE11_M_is_localEv.exit.i.i: ; preds = %17
  call void @_ZdlPv(ptr noundef %19) #28
  br label %_ZNSt7__cxx1112basic_stringIcSt11char_traitsIcESaIcEED2Ev.exit

_ZNSt7__cxx1112basic_stringIcSt11char_traitsIcESaIcEED2Ev.exit: ; preds = %_ZNKSt7__cxx1112basic_stringIcSt11char_traitsIcESaIcEE11_M_is_localEv.exit.i.i, %_ZNKSt7__cxx1112basic_stringIcSt11char_traitsIcESaIcEE11_M_is_localEv.exit.thread.i.i
  call void @llvm.lifetime.end.p0(i64 1, ptr nonnull %4) #25
  call void @llvm.lifetime.end.p0(i64 32, ptr nonnull %3) #25
  resume { ptr, i32 } %18

.critedge20:                                      ; preds = %10, %13
  store i32 1, ptr %2, align 8, !tbaa !52
  %25 = getelementptr inbounds nuw i8, ptr %2, i64 4
  store i32 1, ptr %25, align 4, !tbaa !55
  %26 = load ptr, ptr %5, align 8, !tbaa !24
  %27 = call i32 @gst_element_get_state(ptr noundef %26, ptr noundef nonnull %2, ptr noundef nonnull %25, i64 noundef 5000000000)
  %28 = load i64, ptr %2, align 8
  ret i64 %28
}